ARM GAS  C:\Users\HERMIN~1\AppData\Local\Temp\ccBb6Ls5.s 			page 1


   1              		.cpu cortex-m0
   2              		.fpu softvfp
   3              		.eabi_attribute 20, 1
   4              		.eabi_attribute 21, 1
   5              		.eabi_attribute 23, 3
   6              		.eabi_attribute 24, 1
   7              		.eabi_attribute 25, 1
   8              		.eabi_attribute 26, 1
   9              		.eabi_attribute 30, 6
  10              		.eabi_attribute 34, 0
  11              		.eabi_attribute 18, 4
  12              		.code	16
  13              		.file	"main.c"
  14              		.text
  15              	.Ltext0:
  16              		.cfi_sections	.debug_frame
  17              		.section	.text.main,"ax",%progbits
  18              		.align	2
  19              		.global	main
  20              		.code	16
  21              		.thumb_func
  22              		.type	main, %function
  23              	main:
  24              	.LFB34:
  25              		.file 1 ".\\main.c"
   1:.\main.c      **** /*******************************************************************************
   2:.\main.c      **** * File Name: main.c
   3:.\main.c      **** *
   4:.\main.c      **** * Version: 1.20
   5:.\main.c      **** *
   6:.\main.c      **** * Description:
   7:.\main.c      **** *  This example project demonstrates the basic operation of the I2C master
   8:.\main.c      **** *  (SCB mode) component. The I2C master sends a packet with a command to
   9:.\main.c      **** *  the I2C slave to control the RGB LED color. The packet with a status
  10:.\main.c      **** *  is read back.
  11:.\main.c      **** *  For more information refer to the example project datasheet.
  12:.\main.c      **** *
  13:.\main.c      **** ********************************************************************************
  14:.\main.c      **** * Copyright 2014-2015, Cypress Semiconductor Corporation. All rights reserved.
  15:.\main.c      **** * This software is owned by Cypress Semiconductor Corporation and is protected
  16:.\main.c      **** * by and subject to worldwide patent and copyright laws and treaties.
  17:.\main.c      **** * Therefore, you may use this software only as provided in the license agreement
  18:.\main.c      **** * accompanying the software package from which you obtained this software.
  19:.\main.c      **** * CYPRESS AND ITS SUPPLIERS MAKE NO WARRANTY OF ANY KIND, EXPRESS OR IMPLIED,
  20:.\main.c      **** * WITH REGARD TO THIS SOFTWARE, INCLUDING, BUT NOT LIMITED TO, NONINFRINGEMENT,
  21:.\main.c      **** * IMPLIED WARRANTIES OF MERCHANTABILITY AND FITNESS FOR A PARTICULAR PURPOSE.
  22:.\main.c      **** *******************************************************************************/
  23:.\main.c      **** 
  24:.\main.c      **** #include "main.h"
  25:.\main.c      **** 
  26:.\main.c      **** 
  27:.\main.c      **** /*******************************************************************************
  28:.\main.c      **** * Function Name: main
  29:.\main.c      **** ********************************************************************************
  30:.\main.c      **** * Summary:
  31:.\main.c      **** *  The main function performs the following actions:
  32:.\main.c      **** *   1. Turns off the RGB LED.
ARM GAS  C:\Users\HERMIN~1\AppData\Local\Temp\ccBb6Ls5.s 			page 2


  33:.\main.c      **** *   2. Starts the I2C master (SCB mode) component.
  34:.\main.c      **** *   3. Enables global interrupts.
  35:.\main.c      **** *   4. Sends command and status packets to the slave every 500mS.
  36:.\main.c      **** *
  37:.\main.c      **** * Parameters:
  38:.\main.c      **** *  None
  39:.\main.c      **** *
  40:.\main.c      **** * Return:
  41:.\main.c      **** *  None
  42:.\main.c      **** *
  43:.\main.c      **** *******************************************************************************/
  44:.\main.c      **** int main()
  45:.\main.c      **** {
  26              		.loc 1 45 0
  27              		.cfi_startproc
  28 0000 80B5     		push	{r7, lr}
  29              		.cfi_def_cfa_offset 8
  30              		.cfi_offset 7, -8
  31              		.cfi_offset 14, -4
  32 0002 82B0     		sub	sp, sp, #8
  33              		.cfi_def_cfa_offset 16
  34 0004 00AF     		add	r7, sp, #0
  35              		.cfi_def_cfa_register 7
  46:.\main.c      ****     uint8 command = CMD_SET_RED;
  36              		.loc 1 46 0
  37 0006 FB1D     		add	r3, r7, #7
  38 0008 0122     		mov	r2, #1
  39 000a 1A70     		strb	r2, [r3]
  47:.\main.c      **** 
  48:.\main.c      ****     RGB_LED_OFF;
  40              		.loc 1 48 0
  41 000c 0120     		mov	r0, #1
  42 000e FFF7FEFF 		bl	LED_RED_Write
  43 0012 0120     		mov	r0, #1
  44 0014 FFF7FEFF 		bl	LED_GREEN_Write
  49:.\main.c      **** 
  50:.\main.c      ****     I2CM_Start();
  45              		.loc 1 50 0
  46 0018 FFF7FEFF 		bl	I2CM_Start
  51:.\main.c      **** 
  52:.\main.c      ****     CyGlobalIntEnable;
  47              		.loc 1 52 0
  48              	@ 52 ".\main.c" 1
  49 001c 62B6     		CPSIE   i
  50              	@ 0 "" 2
  51              		.code	16
  52              	.L4:
  53:.\main.c      **** 
  54:.\main.c      ****     /***************************************************************************
  55:.\main.c      ****     * Main polling loop
  56:.\main.c      ****     ***************************************************************************/
  57:.\main.c      ****     for(;;)
  58:.\main.c      ****     {
  59:.\main.c      ****         /* Send packet with command to the slave */
  60:.\main.c      ****         if (0u == WriteCommandPacket(command))
  53              		.loc 1 60 0
  54 001e FB1D     		add	r3, r7, #7
ARM GAS  C:\Users\HERMIN~1\AppData\Local\Temp\ccBb6Ls5.s 			page 3


  55 0020 1B78     		ldrb	r3, [r3]
  56 0022 181C     		mov	r0, r3
  57 0024 FFF7FEFF 		bl	WriteCommandPacket
  58 0028 031E     		sub	r3, r0, #0
  59 002a 15D1     		bne	.L2
  61:.\main.c      ****         {
  62:.\main.c      ****             /* Read response packet from the slave */
  63:.\main.c      ****             if (0u == ReadStatusPacket())
  60              		.loc 1 63 0
  61 002c FFF7FEFF 		bl	ReadStatusPacket
  62 0030 031E     		sub	r3, r0, #0
  63 0032 11D1     		bne	.L2
  64:.\main.c      ****             {
  65:.\main.c      ****                 /* Next command to be written */
  66:.\main.c      ****                 command++;
  64              		.loc 1 66 0
  65 0034 FB1D     		add	r3, r7, #7
  66 0036 1A78     		ldrb	r2, [r3]
  67 0038 FB1D     		add	r3, r7, #7
  68 003a 0132     		add	r2, r2, #1
  69 003c 1A70     		strb	r2, [r3]
  67:.\main.c      ****                 if (command > CMD_SET_BLUE)
  70              		.loc 1 67 0
  71 003e FB1D     		add	r3, r7, #7
  72 0040 1B78     		ldrb	r3, [r3]
  73 0042 032B     		cmp	r3, #3
  74 0044 02D9     		bls	.L3
  68:.\main.c      ****                 {
  69:.\main.c      ****                     command = CMD_SET_OFF;
  75              		.loc 1 69 0
  76 0046 FB1D     		add	r3, r7, #7
  77 0048 0022     		mov	r2, #0
  78 004a 1A70     		strb	r2, [r3]
  79              	.L3:
  70:.\main.c      ****                 }
  71:.\main.c      **** 
  72:.\main.c      ****                 /* Turn off status LED */
  73:.\main.c      ****                 RGB_LED_OFF;
  80              		.loc 1 73 0
  81 004c 0120     		mov	r0, #1
  82 004e FFF7FEFF 		bl	LED_RED_Write
  83 0052 0120     		mov	r0, #1
  84 0054 FFF7FEFF 		bl	LED_GREEN_Write
  85              	.L2:
  74:.\main.c      ****             }
  75:.\main.c      ****         }
  76:.\main.c      **** 
  77:.\main.c      ****         CyDelay(CMD_TO_CMD_DELAY); /* Delay between commands */
  86              		.loc 1 77 0
  87 0058 FA23     		mov	r3, #250
  88 005a 5B00     		lsl	r3, r3, #1
  89 005c 181C     		mov	r0, r3
  90 005e FFF7FEFF 		bl	CyDelay
  78:.\main.c      ****     }
  91              		.loc 1 78 0
  92 0062 DCE7     		b	.L4
  93              		.cfi_endproc
ARM GAS  C:\Users\HERMIN~1\AppData\Local\Temp\ccBb6Ls5.s 			page 4


  94              	.LFE34:
  95              		.size	main, .-main
  96              		.section	.text.WriteCommandPacket,"ax",%progbits
  97              		.align	2
  98              		.global	WriteCommandPacket
  99              		.code	16
 100              		.thumb_func
 101              		.type	WriteCommandPacket, %function
 102              	WriteCommandPacket:
 103              	.LFB35:
  79:.\main.c      **** }
  80:.\main.c      **** 
  81:.\main.c      **** 
  82:.\main.c      **** /*******************************************************************************
  83:.\main.c      **** * Function Name: WriteCommandPacket
  84:.\main.c      **** ********************************************************************************
  85:.\main.c      **** * Summary:
  86:.\main.c      **** *  Master initiates the transfer to write command packet into the slave.
  87:.\main.c      **** *  The status of the transfer is returned.
  88:.\main.c      **** *
  89:.\main.c      **** * Parameters:
  90:.\main.c      **** *  cmd: command to execute. Available commands:
  91:.\main.c      **** *   - CMD_SET_RED:   set red color of the LED.
  92:.\main.c      **** *   - CMD_SET_GREEN: set green color of the LED.
  93:.\main.c      **** *   - CMD_SET_BLUE:  set blue color of the LED.
  94:.\main.c      **** *   - CMD_SET_OFF:   turn off the LED.
  95:.\main.c      **** *
  96:.\main.c      **** * Return:
  97:.\main.c      **** *  Returns status of the transfer. There are two statuses
  98:.\main.c      **** *  - TRANSFER_CMPLT: transfer completed successfully.
  99:.\main.c      **** *  - TRANSFER_ERROR: the error occurred while transfer.
 100:.\main.c      **** *
 101:.\main.c      **** *******************************************************************************/
 102:.\main.c      **** uint32 WriteCommandPacket(uint8 cmd)
 103:.\main.c      **** {
 104              		.loc 1 103 0
 105              		.cfi_startproc
 106 0000 80B5     		push	{r7, lr}
 107              		.cfi_def_cfa_offset 8
 108              		.cfi_offset 7, -8
 109              		.cfi_offset 14, -4
 110 0002 84B0     		sub	sp, sp, #16
 111              		.cfi_def_cfa_offset 24
 112 0004 00AF     		add	r7, sp, #0
 113              		.cfi_def_cfa_register 7
 114 0006 021C     		mov	r2, r0
 115 0008 FB1D     		add	r3, r7, #7
 116 000a 1A70     		strb	r2, [r3]
 104:.\main.c      ****     uint8  buffer[BUFFER_SIZE];
 105:.\main.c      ****     uint32 status = TRANSFER_ERROR;
 117              		.loc 1 105 0
 118 000c FF23     		mov	r3, #255
 119 000e FB60     		str	r3, [r7, #12]
 106:.\main.c      **** 
 107:.\main.c      ****     /* Initialize buffer with packet */
 108:.\main.c      ****     buffer[PACKET_SOP_POS] = PACKET_SOP;
 120              		.loc 1 108 0
ARM GAS  C:\Users\HERMIN~1\AppData\Local\Temp\ccBb6Ls5.s 			page 5


 121 0010 0823     		mov	r3, #8
 122 0012 FB18     		add	r3, r7, r3
 123 0014 0122     		mov	r2, #1
 124 0016 1A70     		strb	r2, [r3]
 109:.\main.c      ****     buffer[PACKET_CMD_POS] = cmd;
 125              		.loc 1 109 0
 126 0018 0823     		mov	r3, #8
 127 001a FB18     		add	r3, r7, r3
 128 001c FA1D     		add	r2, r7, #7
 129 001e 1278     		ldrb	r2, [r2]
 130 0020 5A70     		strb	r2, [r3, #1]
 110:.\main.c      ****     buffer[PACKET_EOP_POS] = PACKET_EOP;
 131              		.loc 1 110 0
 132 0022 0823     		mov	r3, #8
 133 0024 FB18     		add	r3, r7, r3
 134 0026 1722     		mov	r2, #23
 135 0028 9A70     		strb	r2, [r3, #2]
 111:.\main.c      **** 
 112:.\main.c      ****     (void) I2CM_I2CMasterWriteBuf(I2C_SLAVE_ADDR, buffer, PACKET_SIZE, \
 136              		.loc 1 112 0
 137 002a 0823     		mov	r3, #8
 138 002c FB18     		add	r3, r7, r3
 139 002e 0820     		mov	r0, #8
 140 0030 191C     		mov	r1, r3
 141 0032 0322     		mov	r2, #3
 142 0034 0023     		mov	r3, #0
 143 0036 FFF7FEFF 		bl	I2CM_I2CMasterWriteBuf
 113:.\main.c      ****                                   I2CM_I2C_MODE_COMPLETE_XFER);
 114:.\main.c      **** 
 115:.\main.c      ****     /* Waits until master completes write transfer */
 116:.\main.c      ****     while (0u == (I2CM_I2CMasterStatus() & I2CM_I2C_MSTAT_WR_CMPLT))
 144              		.loc 1 116 0
 145 003a C046     		mov	r8, r8
 146              	.L6:
 147              		.loc 1 116 0 is_stmt 0 discriminator 1
 148 003c FFF7FEFF 		bl	I2CM_I2CMasterStatus
 149 0040 021C     		mov	r2, r0
 150 0042 0223     		mov	r3, #2
 151 0044 1340     		and	r3, r2
 152 0046 F9D0     		beq	.L6
 117:.\main.c      ****     {
 118:.\main.c      ****     }
 119:.\main.c      **** 
 120:.\main.c      ****     /* Displays transfer status */
 121:.\main.c      ****     if (0u == (I2CM_I2C_MSTAT_ERR_XFER & I2CM_I2CMasterStatus()))
 153              		.loc 1 121 0 is_stmt 1
 154 0048 FFF7FEFF 		bl	I2CM_I2CMasterStatus
 155 004c 021C     		mov	r2, r0
 156 004e 8023     		mov	r3, #128
 157 0050 9B00     		lsl	r3, r3, #2
 158 0052 1340     		and	r3, r2
 159 0054 0DD1     		bne	.L7
 122:.\main.c      ****     {
 123:.\main.c      ****         /* Check if all bytes was written */
 124:.\main.c      ****         if (I2CM_I2CMasterGetWriteBufSize() == BUFFER_SIZE)
 160              		.loc 1 124 0
 161 0056 FFF7FEFF 		bl	I2CM_I2CMasterGetWriteBufSize
ARM GAS  C:\Users\HERMIN~1\AppData\Local\Temp\ccBb6Ls5.s 			page 6


 162 005a 031E     		sub	r3, r0, #0
 163 005c 032B     		cmp	r3, #3
 164 005e 0ED1     		bne	.L9
 125:.\main.c      ****         {
 126:.\main.c      ****             RGB_LED_ON_GREEN;
 165              		.loc 1 126 0
 166 0060 0120     		mov	r0, #1
 167 0062 FFF7FEFF 		bl	LED_RED_Write
 168 0066 0020     		mov	r0, #0
 169 0068 FFF7FEFF 		bl	LED_GREEN_Write
 127:.\main.c      ****             status = TRANSFER_CMPLT;
 170              		.loc 1 127 0
 171 006c 0023     		mov	r3, #0
 172 006e FB60     		str	r3, [r7, #12]
 173 0070 05E0     		b	.L9
 174              	.L7:
 128:.\main.c      ****         }
 129:.\main.c      ****     }
 130:.\main.c      ****     else
 131:.\main.c      ****     {
 132:.\main.c      ****         RGB_LED_ON_RED;
 175              		.loc 1 132 0
 176 0072 0020     		mov	r0, #0
 177 0074 FFF7FEFF 		bl	LED_RED_Write
 178 0078 0120     		mov	r0, #1
 179 007a FFF7FEFF 		bl	LED_GREEN_Write
 180              	.L9:
 133:.\main.c      ****     }
 134:.\main.c      **** 
 135:.\main.c      ****     (void) I2CM_I2CMasterClearStatus();
 181              		.loc 1 135 0
 182 007e FFF7FEFF 		bl	I2CM_I2CMasterClearStatus
 136:.\main.c      **** 
 137:.\main.c      ****     return (status);
 183              		.loc 1 137 0
 184 0082 FB68     		ldr	r3, [r7, #12]
 138:.\main.c      **** }
 185              		.loc 1 138 0
 186 0084 181C     		mov	r0, r3
 187 0086 BD46     		mov	sp, r7
 188 0088 04B0     		add	sp, sp, #16
 189              		@ sp needed
 190 008a 80BD     		pop	{r7, pc}
 191              		.cfi_endproc
 192              	.LFE35:
 193              		.size	WriteCommandPacket, .-WriteCommandPacket
 194              		.section	.text.ReadStatusPacket,"ax",%progbits
 195              		.align	2
 196              		.global	ReadStatusPacket
 197              		.code	16
 198              		.thumb_func
 199              		.type	ReadStatusPacket, %function
 200              	ReadStatusPacket:
 201              	.LFB36:
 139:.\main.c      **** 
 140:.\main.c      **** 
 141:.\main.c      **** /*******************************************************************************
ARM GAS  C:\Users\HERMIN~1\AppData\Local\Temp\ccBb6Ls5.s 			page 7


 142:.\main.c      **** * Function Name: ReadStatusPacket
 143:.\main.c      **** ********************************************************************************
 144:.\main.c      **** * Summary:
 145:.\main.c      **** *  Master initiates the transfer to read status packet from the slave.
 146:.\main.c      **** *  The status of the transfer is returned.
 147:.\main.c      **** *
 148:.\main.c      **** * Parameters:
 149:.\main.c      **** *  None
 150:.\main.c      **** *
 151:.\main.c      **** * Return:
 152:.\main.c      **** *  Returns status of the transfer. There are two statuses
 153:.\main.c      **** *  - TRANSFER_CMPLT: transfer completed successfully.
 154:.\main.c      **** *  - TRANSFER_ERROR: the error occurred while transfer.
 155:.\main.c      **** *
 156:.\main.c      **** *******************************************************************************/
 157:.\main.c      **** uint32 ReadStatusPacket(void)
 158:.\main.c      **** {
 202              		.loc 1 158 0
 203              		.cfi_startproc
 204 0000 80B5     		push	{r7, lr}
 205              		.cfi_def_cfa_offset 8
 206              		.cfi_offset 7, -8
 207              		.cfi_offset 14, -4
 208 0002 82B0     		sub	sp, sp, #8
 209              		.cfi_def_cfa_offset 16
 210 0004 00AF     		add	r7, sp, #0
 211              		.cfi_def_cfa_register 7
 159:.\main.c      ****     uint8  buffer[BUFFER_SIZE];
 160:.\main.c      ****     uint32 status = TRANSFER_ERROR;
 212              		.loc 1 160 0
 213 0006 FF23     		mov	r3, #255
 214 0008 7B60     		str	r3, [r7, #4]
 161:.\main.c      **** 
 162:.\main.c      ****     (void) I2CM_I2CMasterReadBuf(I2C_SLAVE_ADDR, buffer, PACKET_SIZE, \
 215              		.loc 1 162 0
 216 000a 3B1C     		mov	r3, r7
 217 000c 0820     		mov	r0, #8
 218 000e 191C     		mov	r1, r3
 219 0010 0322     		mov	r2, #3
 220 0012 0023     		mov	r3, #0
 221 0014 FFF7FEFF 		bl	I2CM_I2CMasterReadBuf
 163:.\main.c      ****                                  I2CM_I2C_MODE_COMPLETE_XFER);
 164:.\main.c      **** 
 165:.\main.c      ****     /* Waits until master complete read transfer */
 166:.\main.c      ****     while (0u == (I2CM_I2CMasterStatus() & I2CM_I2C_MSTAT_RD_CMPLT))
 222              		.loc 1 166 0
 223 0018 C046     		mov	r8, r8
 224              	.L12:
 225              		.loc 1 166 0 is_stmt 0 discriminator 1
 226 001a FFF7FEFF 		bl	I2CM_I2CMasterStatus
 227 001e 021C     		mov	r2, r0
 228 0020 0123     		mov	r3, #1
 229 0022 1340     		and	r3, r2
 230 0024 F9D0     		beq	.L12
 167:.\main.c      ****     {
 168:.\main.c      ****     }
 169:.\main.c      **** 
ARM GAS  C:\Users\HERMIN~1\AppData\Local\Temp\ccBb6Ls5.s 			page 8


 170:.\main.c      ****     /* Displays transfer status */
 171:.\main.c      ****     if (0u == (I2CM_I2C_MSTAT_ERR_XFER & I2CM_I2CMasterStatus()))
 231              		.loc 1 171 0 is_stmt 1
 232 0026 FFF7FEFF 		bl	I2CM_I2CMasterStatus
 233 002a 021C     		mov	r2, r0
 234 002c 8023     		mov	r3, #128
 235 002e 9B00     		lsl	r3, r3, #2
 236 0030 1340     		and	r3, r2
 237 0032 19D1     		bne	.L13
 172:.\main.c      ****     {
 173:.\main.c      ****         /* Check packet structure */
 174:.\main.c      ****         if ((I2CM_I2CMasterGetReadBufSize() == BUFFER_SIZE) &&
 238              		.loc 1 174 0
 239 0034 FFF7FEFF 		bl	I2CM_I2CMasterGetReadBufSize
 240 0038 031E     		sub	r3, r0, #0
 241 003a 032B     		cmp	r3, #3
 242 003c 1CD1     		bne	.L15
 175:.\main.c      ****             (PACKET_SOP == buffer[PACKET_SOP_POS]) &&
 243              		.loc 1 175 0 discriminator 1
 244 003e 3B1C     		mov	r3, r7
 245 0040 1B78     		ldrb	r3, [r3]
 174:.\main.c      ****             (PACKET_SOP == buffer[PACKET_SOP_POS]) &&
 246              		.loc 1 174 0 discriminator 1
 247 0042 012B     		cmp	r3, #1
 248 0044 18D1     		bne	.L15
 176:.\main.c      ****             (PACKET_EOP == buffer[PACKET_EOP_POS]))
 249              		.loc 1 176 0
 250 0046 3B1C     		mov	r3, r7
 251 0048 9B78     		ldrb	r3, [r3, #2]
 175:.\main.c      ****             (PACKET_SOP == buffer[PACKET_SOP_POS]) &&
 252              		.loc 1 175 0
 253 004a 172B     		cmp	r3, #23
 254 004c 14D1     		bne	.L15
 177:.\main.c      ****         {
 178:.\main.c      ****             /* Check packet status */
 179:.\main.c      ****             if (STS_CMD_DONE == buffer[PACKET_STS_POS])
 255              		.loc 1 179 0
 256 004e 3B1C     		mov	r3, r7
 257 0050 5B78     		ldrb	r3, [r3, #1]
 258 0052 002B     		cmp	r3, #0
 259 0054 10D1     		bne	.L15
 180:.\main.c      ****             {
 181:.\main.c      ****                 RGB_LED_ON_GREEN;
 260              		.loc 1 181 0
 261 0056 0120     		mov	r0, #1
 262 0058 FFF7FEFF 		bl	LED_RED_Write
 263 005c 0020     		mov	r0, #0
 264 005e FFF7FEFF 		bl	LED_GREEN_Write
 182:.\main.c      ****                 status = TRANSFER_CMPLT;
 265              		.loc 1 182 0
 266 0062 0023     		mov	r3, #0
 267 0064 7B60     		str	r3, [r7, #4]
 268 0066 07E0     		b	.L15
 269              	.L13:
 183:.\main.c      ****             }
 184:.\main.c      ****         }
 185:.\main.c      ****     }
ARM GAS  C:\Users\HERMIN~1\AppData\Local\Temp\ccBb6Ls5.s 			page 9


 186:.\main.c      ****     else
 187:.\main.c      ****     {
 188:.\main.c      ****         RGB_LED_ON_RED;
 270              		.loc 1 188 0
 271 0068 0020     		mov	r0, #0
 272 006a FFF7FEFF 		bl	LED_RED_Write
 273 006e 0120     		mov	r0, #1
 274 0070 FFF7FEFF 		bl	LED_GREEN_Write
 189:.\main.c      ****         status = TRANSFER_ERROR;
 275              		.loc 1 189 0
 276 0074 FF23     		mov	r3, #255
 277 0076 7B60     		str	r3, [r7, #4]
 278              	.L15:
 190:.\main.c      ****     }
 191:.\main.c      **** 
 192:.\main.c      ****     (void) I2CM_I2CMasterClearStatus();
 279              		.loc 1 192 0
 280 0078 FFF7FEFF 		bl	I2CM_I2CMasterClearStatus
 193:.\main.c      **** 
 194:.\main.c      ****     return (status);
 281              		.loc 1 194 0
 282 007c 7B68     		ldr	r3, [r7, #4]
 195:.\main.c      **** }
 283              		.loc 1 195 0
 284 007e 181C     		mov	r0, r3
 285 0080 BD46     		mov	sp, r7
 286 0082 02B0     		add	sp, sp, #8
 287              		@ sp needed
 288 0084 80BD     		pop	{r7, pc}
 289              		.cfi_endproc
 290              	.LFE36:
 291              		.size	ReadStatusPacket, .-ReadStatusPacket
 292 0086 C046     		.text
 293              	.Letext0:
 294              		.file 2 "Generated_Source\\PSoC4/cytypes.h"